Certificate:
    Data:
        Version: 3 (0x2)
        Serial Number:
            c3:e0:67:63:31:35:c7:7b:77:56:be:d7:ec:cb:88:37
    Signature Algorithm: sha256WithRSAEncryption
        Issuer: CN=vpnserver
        Validity
            Not Before: Nov 22 14:35:36 2022 GMT
            Not After : Feb 24 14:35:36 2025 GMT
        Subject: CN=client1.domain.tld
        Subject Public Key Info:
            Public Key Algorithm: rsaEncryption
                Public-Key: (2048 bit)
                Modulus:
                    00:c1:f9:1b:e5:99:49:bb:e2:17:93:be:f8:b1:2a:
                    bc:a2:c2:b2:d0:15:3a:59:48:ac:e4:22:fa:77:05:
                    d6:e4:16:69:e6:d5:10:3e:92:eb:cd:17:a8:ae:69:
                    cf:89:73:e0:f9:6f:9f:bf:b0:75:3d:1f:1a:d6:2f:
                    84:ff:3d:5a:c0:3f:a9:12:34:de:fb:e9:18:1f:37:
                    83:66:ca:74:83:fc:f2:e9:97:a2:a2:4f:b6:d4:a5:
                    3c:6b:bc:26:49:d0:26:ec:f2:89:56:05:17:37:8f:
                    c3:64:3c:70:fa:99:64:d1:9b:91:41:56:da:70:a8:
                    57:a9:78:84:6a:5c:37:27:34:1b:f8:ef:ac:d2:78:
                    9d:93:34:ad:72:7a:5b:ba:01:29:8e:4b:42:90:18:
                    5e:07:ac:70:3a:d3:8c:91:65:b8:b2:50:54:2a:7d:
                    d8:ac:d0:e8:ff:d1:14:dd:73:9e:d6:92:37:94:5e:
                    18:14:3d:96:da:7b:d3:1c:cd:18:76:b7:c0:2b:a2:
                    70:18:12:66:7a:7d:aa:4c:ba:7b:d9:97:a4:00:d0:
                    49:1a:5b:9f:c9:34:fd:e3:d9:f0:4d:bf:4d:9d:db:
                    eb:4b:f9:8b:04:00:ce:a2:16:0f:95:a4:96:2d:ff:
                    aa:e0:5b:f8:7d:63:30:7a:2d:cb:c4:83:45:3c:e0:
                    2f:e9
                Exponent: 65537 (0x10001)
        X509v3 extensions:
            X509v3 Basic Constraints: 
                CA:FALSE
            X509v3 Subject Key Identifier: 
                62:79:D3:DC:C6:A6:36:C9:9F:EE:56:D2:04:68:80:04:7C:5F:E8:67
            X509v3 Authority Key Identifier: 
                keyid:C1:F8:D9:01:2E:58:C4:8C:6D:A4:E6:18:DD:2A:44:66:97:2F:1B:98
                DirName:/CN=vpnserver
                serial:DF:EF:E1:4C:E4:B3:C7:A8

            X509v3 Extended Key Usage: 
                TLS Web Client Authentication
            X509v3 Key Usage: 
                Digital Signature
    Signature Algorithm: sha256WithRSAEncryption
         4a:ac:6b:5b:c9:22:52:91:69:7a:a0:7b:11:65:e3:70:6f:92:
         08:33:93:98:94:91:76:98:8a:9e:25:4d:fc:ad:fd:b3:52:7a:
         e5:d5:f4:5e:d4:d8:42:53:1e:16:fc:21:da:5b:6d:7c:d2:81:
         64:db:ad:ee:d1:83:14:a1:00:7f:16:9d:d8:d1:4d:ac:06:4f:
         d3:a2:8a:25:8e:9b:c4:50:d2:01:24:1c:b9:d4:aa:89:57:10:
         78:71:c8:3d:90:a7:86:23:7f:ad:43:3b:e5:c5:8b:5e:b2:dc:
         5d:9f:04:ce:a5:5c:45:48:57:13:49:5b:6f:42:b6:bc:7c:da:
         de:dc:29:b1:b1:f8:ca:b7:3a:2b:e6:4d:b6:aa:da:d1:47:c5:
         39:a9:68:b1:88:3e:f6:ee:ff:ef:bb:a1:ba:9f:d5:13:ff:8c:
         06:41:46:b9:29:77:df:b9:75:18:22:bb:01:7d:85:e5:62:a5:
         76:53:49:b1:25:0a:f5:47:fe:2b:95:e7:2b:b7:26:ee:5b:1b:
         ee:a4:1d:91:66:8f:87:48:97:91:7b:03:3c:67:e1:9e:56:a0:
         28:c3:7f:eb:4e:6e:5c:3e:57:25:bf:30:6a:59:3f:48:9c:53:
         4a:c3:cc:72:f1:4b:5e:56:dc:17:ca:55:5c:16:eb:e3:62:85:
         e0:cd:78:e7
-----BEGIN CERTIFICATE-----
MIIDUjCCAjqgAwIBAgIRAMPgZ2MxNcd7d1a+1+zLiDcwDQYJKoZIhvcNAQELBQAw
FDESMBAGA1UEAwwJdnBuc2VydmVyMB4XDTIyMTEyMjE0MzUzNloXDTI1MDIyNDE0
MzUzNlowHTEbMBkGA1UEAwwSY2xpZW50MS5kb21haW4udGxkMIIBIjANBgkqhkiG
9w0BAQEFAAOCAQ8AMIIBCgKCAQEAwfkb5ZlJu+IXk774sSq8osKy0BU6WUis5CL6
dwXW5BZp5tUQPpLrzReormnPiXPg+W+fv7B1PR8a1i+E/z1awD+pEjTe++kYHzeD
Zsp0g/zy6Zeiok+21KU8a7wmSdAm7PKJVgUXN4/DZDxw+plk0ZuRQVbacKhXqXiE
alw3JzQb+O+s0nidkzStcnpbugEpjktCkBheB6xwOtOMkWW4slBUKn3YrNDo/9EU
3XOe1pI3lF4YFD2W2nvTHM0YdrfAK6JwGBJmen2qTLp72ZekANBJGlufyTT949nw
Tb9NndvrS/mLBADOohYPlaSWLf+q4Fv4fWMwei3LxINFPOAv6QIDAQABo4GVMIGS
MAkGA1UdEwQCMAAwHQYDVR0OBBYEFGJ509zGpjbJn+5W0gRogAR8X+hnMEQGA1Ud
IwQ9MDuAFMH42QEuWMSMbaTmGN0qRGaXLxuYoRikFjAUMRIwEAYDVQQDDAl2cG5z
ZXJ2ZXKCCQDf7+FM5LPHqDATBgNVHSUEDDAKBggrBgEFBQcDAjALBgNVHQ8EBAMC
B4AwDQYJKoZIhvcNAQELBQADggEBAEqsa1vJIlKRaXqgexFl43Bvkggzk5iUkXaY
ip4lTfyt/bNSeuXV9F7U2EJTHhb8IdpbbXzSgWTbre7RgxShAH8WndjRTawGT9Oi
iiWOm8RQ0gEkHLnUqolXEHhxyD2Qp4Yjf61DO+XFi16y3F2fBM6lXEVIVxNJW29C
trx82t7cKbGx+Mq3OivmTbaq2tFHxTmpaLGIPvbu/++7obqf1RP/jAZBRrkpd9+5
dRgiuwF9heVipXZTSbElCvVH/iuV5yu3Ju5bG+6kHZFmj4dIl5F7Azxn4Z5WoCjD
f+tOblw+VyW/MGpZP0icU0rDzHLxS15W3BfKVVwW6+NiheDNeOc=
-----END CERTIFICATE-----
